target datalayout = "e-m:e-p270:32:32-p271:32:32-p272:64:64-i64:64-i128:128-f80:128-n8:16:32:64-S128"
target triple = "x86_64-pc-linux-gnu"

%struct._object = type { %union.anon, ptr }
%union.anon = type { i64 }
%struct.ast_state = type { %struct._PyOnceFlag, i32, ptr, ptr, ptr, ptr, ptr, ptr, ptr, ptr, ptr, ptr, ptr, ptr, ptr, ptr, ptr, ptr, ptr, ptr, ptr, ptr, ptr, ptr, ptr, ptr, ptr, ptr, ptr, ptr, ptr, ptr, ptr, ptr, ptr, ptr, ptr, ptr, ptr, ptr, ptr, ptr, ptr, ptr, ptr, ptr, ptr, ptr, ptr, ptr, ptr, ptr, ptr, ptr, ptr, ptr, ptr, ptr, ptr, ptr, ptr, ptr, ptr, ptr, ptr, ptr, ptr, ptr, ptr, ptr, ptr, ptr, ptr, ptr, ptr, ptr, ptr, ptr, ptr, ptr, ptr, ptr, ptr, ptr, ptr, ptr, ptr, ptr, ptr, ptr, ptr, ptr, ptr, ptr, ptr, ptr, ptr, ptr, ptr, ptr, ptr, ptr, ptr, ptr, ptr, ptr, ptr, ptr, ptr, ptr, ptr, ptr, ptr, ptr, ptr, ptr, ptr, ptr, ptr, ptr, ptr, ptr, ptr, ptr, ptr, ptr, ptr, ptr, ptr, ptr, ptr, ptr, ptr, ptr, ptr, ptr, ptr, ptr, ptr, ptr, ptr, ptr, ptr, ptr, ptr, ptr, ptr, ptr, ptr, ptr, ptr, ptr, ptr, ptr, ptr, ptr, ptr, ptr, ptr, ptr, ptr, ptr, ptr, ptr, ptr, ptr, ptr, ptr, ptr, ptr, ptr, ptr, ptr, ptr, ptr, ptr, ptr, ptr, ptr, ptr, ptr, ptr, ptr, ptr, ptr, ptr, ptr, ptr, ptr, ptr, ptr, ptr, ptr, ptr, ptr, ptr, ptr, ptr, ptr, ptr, ptr, ptr, ptr, ptr, ptr, ptr, ptr, ptr, ptr, ptr, ptr, ptr, ptr, ptr, ptr, ptr, ptr, ptr, ptr, ptr, ptr, ptr, ptr, ptr, ptr, ptr, ptr, ptr, ptr, ptr, ptr, ptr, ptr, ptr, ptr, ptr, ptr, ptr, ptr, ptr, ptr, ptr, ptr, ptr, ptr }
%struct._PyOnceFlag = type { i8 }
%struct.anon.4 = type { i32, i32 }
%struct._withitem = type { ptr, ptr }
%struct.validator = type { i32, i32 }

@_Py_NoneStruct = external global %struct._object, align 8
@PyExc_RecursionError = external global ptr, align 8
@.str.409 = private unnamed_addr constant [57 x i8] c"maximum recursion depth exceeded during ast construction\00", align 1

; Function Attrs: alwaysinline nounwind uwtable
define internal i32 @_Py_IsImmortal(ptr noundef %0) #2 {
  %2 = alloca ptr, align 8
  store ptr %0, ptr %2, align 8, !tbaa !13
  %3 = load ptr, ptr %2, align 8, !tbaa !13
  %4 = getelementptr inbounds nuw %struct._object, ptr %3, i32 0, i32 0
  %5 = getelementptr inbounds nuw %struct.anon.4, ptr %4, i32 0, i32 0
  %6 = load i32, ptr %5, align 8, !tbaa !21
  %7 = icmp slt i32 %6, 0
  %8 = zext i1 %7 to i32
  ret i32 %8
}

; Function Attrs: inlinehint nounwind uwtable
define internal void @Py_XDECREF(ptr noundef %0) #6 {
  %2 = alloca ptr, align 8
  store ptr %0, ptr %2, align 8, !tbaa !13
  %3 = load ptr, ptr %2, align 8, !tbaa !13
  %4 = icmp ne ptr %3, null
  br i1 %4, label %5, label %7

5:                                                ; preds = %1
  %6 = load ptr, ptr %2, align 8, !tbaa !13
  call void @Py_DECREF(ptr noundef %6)
  br label %7

7:                                                ; preds = %5, %1
  ret void
}

; Function Attrs: alwaysinline nounwind uwtable
define internal void @Py_DECREF(ptr noundef %0) #2 {
  %2 = alloca ptr, align 8
  store ptr %0, ptr %2, align 8, !tbaa !13
  %3 = load ptr, ptr %2, align 8, !tbaa !13
  %4 = call i32 @_Py_IsImmortal(ptr noundef %3)
  %5 = icmp ne i32 %4, 0
  br i1 %5, label %6, label %7

6:                                                ; preds = %1
  br label %16

7:                                                ; preds = %1
  %8 = load ptr, ptr %2, align 8, !tbaa !13
  %9 = getelementptr inbounds nuw %struct._object, ptr %8, i32 0, i32 0
  %10 = getelementptr inbounds nuw %struct.anon.4, ptr %9, i32 0, i32 0
  %11 = load i32, ptr %10, align 8, !tbaa !21
  %12 = add i32 %11, -1
  store i32 %12, ptr %10, align 8, !tbaa !21
  %13 = icmp eq i32 %12, 0
  br i1 %13, label %14, label %16

14:                                               ; preds = %7
  %15 = load ptr, ptr %2, align 8, !tbaa !13
  call void @_Py_Dealloc(ptr noundef %15)
  br label %16

16:                                               ; preds = %6, %14, %7
  ret void
}

; Function Attrs: nounwind uwtable
define internal ptr @ast2obj_withitem(ptr noundef %0, ptr noundef %1, ptr noundef %2) #0 {
  %4 = alloca ptr, align 8
  %5 = alloca ptr, align 8
  %6 = alloca ptr, align 8
  %7 = alloca ptr, align 8
  %8 = alloca ptr, align 8
  %9 = alloca ptr, align 8
  %10 = alloca ptr, align 8
  %11 = alloca ptr, align 8
  %12 = alloca i32, align 4
  store ptr %0, ptr %5, align 8, !tbaa !9
  store ptr %1, ptr %6, align 8, !tbaa !147
  store ptr %2, ptr %7, align 8, !tbaa !26
  call void @llvm.lifetime.start.p0(i64 8, ptr %8) #8
  %13 = load ptr, ptr %7, align 8, !tbaa !26
  store ptr %13, ptr %8, align 8, !tbaa !104
  call void @llvm.lifetime.start.p0(i64 8, ptr %9) #8
  store ptr null, ptr %9, align 8, !tbaa !13
  call void @llvm.lifetime.start.p0(i64 8, ptr %10) #8
  store ptr null, ptr %10, align 8, !tbaa !13
  call void @llvm.lifetime.start.p0(i64 8, ptr %11) #8
  %14 = load ptr, ptr %8, align 8, !tbaa !104
  %15 = icmp ne ptr %14, null
  br i1 %15, label %17, label %16

16:                                               ; preds = %3
  store ptr @_Py_NoneStruct, ptr %4, align 8
  store i32 1, ptr %12, align 4
  br label %90

17:                                               ; preds = %3
  %18 = load ptr, ptr %6, align 8, !tbaa !147
  %19 = getelementptr inbounds nuw %struct.validator, ptr %18, i32 0, i32 0
  %20 = load i32, ptr %19, align 4, !tbaa !146
  %21 = add i32 %20, 1
  store i32 %21, ptr %19, align 4, !tbaa !146
  %22 = load ptr, ptr %6, align 8, !tbaa !147
  %23 = getelementptr inbounds nuw %struct.validator, ptr %22, i32 0, i32 1
  %24 = load i32, ptr %23, align 4, !tbaa !137
  %25 = icmp sgt i32 %21, %24
  br i1 %25, label %26, label %28

26:                                               ; preds = %17
  %27 = load ptr, ptr @PyExc_RecursionError, align 8, !tbaa !13
  call void @PyErr_SetString(ptr noundef %27, ptr noundef @.str.409)
  store ptr null, ptr %4, align 8
  store i32 1, ptr %12, align 4
  br label %90

28:                                               ; preds = %17
  %29 = load ptr, ptr %5, align 8, !tbaa !9
  %30 = getelementptr inbounds nuw %struct.ast_state, ptr %29, i32 0, i32 244
  %31 = load ptr, ptr %30, align 8, !tbaa !276
  store ptr %31, ptr %11, align 8, !tbaa !150
  %32 = load ptr, ptr %11, align 8, !tbaa !150
  %33 = call ptr @PyType_GenericNew(ptr noundef %32, ptr noundef null, ptr noundef null)
  store ptr %33, ptr %9, align 8, !tbaa !13
  %34 = load ptr, ptr %9, align 8, !tbaa !13
  %35 = icmp ne ptr %34, null
  br i1 %35, label %37, label %36

36:                                               ; preds = %28
  store ptr null, ptr %4, align 8
  store i32 1, ptr %12, align 4
  br label %90

37:                                               ; preds = %28
  %38 = load ptr, ptr %5, align 8, !tbaa !9
  %39 = load ptr, ptr %6, align 8, !tbaa !147
  %40 = load ptr, ptr %8, align 8, !tbaa !104
  %41 = getelementptr inbounds nuw %struct._withitem, ptr %40, i32 0, i32 0
  %42 = load ptr, ptr %41, align 8, !tbaa !106
  %43 = call ptr @ast2obj_expr(ptr noundef %38, ptr noundef %39, ptr noundef %42)
  store ptr %43, ptr %10, align 8, !tbaa !13
  %44 = load ptr, ptr %10, align 8, !tbaa !13
  %45 = icmp ne ptr %44, null
  br i1 %45, label %47, label %46

46:                                               ; preds = %37
  br label %83

47:                                               ; preds = %37
  %48 = load ptr, ptr %9, align 8, !tbaa !13
  %49 = load ptr, ptr %5, align 8, !tbaa !9
  %50 = getelementptr inbounds nuw %struct.ast_state, ptr %49, i32 0, i32 166
  %51 = load ptr, ptr %50, align 8, !tbaa !367
  %52 = load ptr, ptr %10, align 8, !tbaa !13
  %53 = call i32 @PyObject_SetAttr(ptr noundef %48, ptr noundef %51, ptr noundef %52)
  %54 = icmp eq i32 %53, -1
  br i1 %54, label %55, label %56

55:                                               ; preds = %47
  br label %83

56:                                               ; preds = %47
  %57 = load ptr, ptr %10, align 8, !tbaa !13
  call void @Py_DECREF(ptr noundef %57)
  %58 = load ptr, ptr %5, align 8, !tbaa !9
  %59 = load ptr, ptr %6, align 8, !tbaa !147
  %60 = load ptr, ptr %8, align 8, !tbaa !104
  %61 = getelementptr inbounds nuw %struct._withitem, ptr %60, i32 0, i32 1
  %62 = load ptr, ptr %61, align 8, !tbaa !108
  %63 = call ptr @ast2obj_expr(ptr noundef %58, ptr noundef %59, ptr noundef %62)
  store ptr %63, ptr %10, align 8, !tbaa !13
  %64 = load ptr, ptr %10, align 8, !tbaa !13
  %65 = icmp ne ptr %64, null
  br i1 %65, label %67, label %66

66:                                               ; preds = %56
  br label %83

67:                                               ; preds = %56
  %68 = load ptr, ptr %9, align 8, !tbaa !13
  %69 = load ptr, ptr %5, align 8, !tbaa !9
  %70 = getelementptr inbounds nuw %struct.ast_state, ptr %69, i32 0, i32 215
  %71 = load ptr, ptr %70, align 8, !tbaa !347
  %72 = load ptr, ptr %10, align 8, !tbaa !13
  %73 = call i32 @PyObject_SetAttr(ptr noundef %68, ptr noundef %71, ptr noundef %72)
  %74 = icmp eq i32 %73, -1
  br i1 %74, label %75, label %76

75:                                               ; preds = %67
  br label %83

76:                                               ; preds = %67
  %77 = load ptr, ptr %10, align 8, !tbaa !13
  call void @Py_DECREF(ptr noundef %77)
  %78 = load ptr, ptr %6, align 8, !tbaa !147
  %79 = getelementptr inbounds nuw %struct.validator, ptr %78, i32 0, i32 0
  %80 = load i32, ptr %79, align 4, !tbaa !146
  %81 = add i32 %80, -1
  store i32 %81, ptr %79, align 4, !tbaa !146
  %82 = load ptr, ptr %9, align 8, !tbaa !13
  store ptr %82, ptr %4, align 8
  store i32 1, ptr %12, align 4
  br label %90

83:                                               ; preds = %75, %66, %55, %46
  %84 = load ptr, ptr %6, align 8, !tbaa !147
  %85 = getelementptr inbounds nuw %struct.validator, ptr %84, i32 0, i32 0
  %86 = load i32, ptr %85, align 4, !tbaa !146
  %87 = add i32 %86, -1
  store i32 %87, ptr %85, align 4, !tbaa !146
  %88 = load ptr, ptr %10, align 8, !tbaa !13
  call void @Py_XDECREF(ptr noundef %88)
  %89 = load ptr, ptr %9, align 8, !tbaa !13
  call void @Py_XDECREF(ptr noundef %89)
  store ptr null, ptr %4, align 8
  store i32 1, ptr %12, align 4
  br label %90

90:                                               ; preds = %83, %76, %36, %26, %16
  call void @llvm.lifetime.end.p0(i64 8, ptr %11) #8
  call void @llvm.lifetime.end.p0(i64 8, ptr %10) #8
  call void @llvm.lifetime.end.p0(i64 8, ptr %9) #8
  call void @llvm.lifetime.end.p0(i64 8, ptr %8) #8
  %91 = load ptr, ptr %4, align 8
  ret ptr %91
}