; Function Attrs: nounwind uwtable
define internal ptr @ast2obj_withitem(ptr noundef %0, ptr noundef %1, ptr noundef readonly %2) #0 {
  %.not = icmp eq ptr %2, null
  br i1 %.not, label %Py_XDECREF.exit44, label %4

4:                                                ; preds = %3
  %5 = load i32, ptr %1, align 4, !tbaa !111
  %6 = add i32 %5, 1
  store i32 %6, ptr %1, align 4, !tbaa !111
  %7 = getelementptr inbounds nuw i8, ptr %1, i64 4
  %8 = load i32, ptr %7, align 4, !tbaa !108
  %9 = icmp sgt i32 %6, %8
  br i1 %9, label %10, label %12

10:                                               ; preds = %4
  %11 = load ptr, ptr @PyExc_RecursionError, align 8, !tbaa !4
  tail call void @PyErr_SetString(ptr noundef %11, ptr noundef nonnull @.str.409) #8
  br label %Py_XDECREF.exit44

12:                                               ; preds = %4
  %13 = getelementptr inbounds nuw i8, ptr %0, i64 1944
  %14 = load ptr, ptr %13, align 8, !tbaa !256
  %15 = tail call ptr @PyType_GenericNew(ptr noundef %14, ptr noundef null, ptr noundef null) #8
  %.not35 = icmp eq ptr %15, null
  br i1 %.not35, label %Py_XDECREF.exit44, label %16

16:                                               ; preds = %12
  %17 = load ptr, ptr %2, align 8, !tbaa !75
  %18 = tail call ptr @ast2obj_expr(ptr noundef nonnull %0, ptr noundef nonnull %1, ptr noundef %17)
  %.not36 = icmp eq ptr %18, null
  br i1 %.not36, label %.thread, label %19

19:                                               ; preds = %16
  %20 = getelementptr inbounds nuw i8, ptr %0, i64 1320
  %21 = load ptr, ptr %20, align 8, !tbaa !291
  %22 = tail call i32 @PyObject_SetAttr(ptr noundef nonnull %15, ptr noundef %21, ptr noundef nonnull %18) #8
  %23 = icmp eq i32 %22, -1
  br i1 %23, label %48, label %24

24:                                               ; preds = %19
  %25 = load i32, ptr %18, align 8, !tbaa !9
  %.not.i38 = icmp sgt i32 %25, -1
  br i1 %.not.i38, label %26, label %Py_DECREF.exit39

26:                                               ; preds = %24
  %27 = add nsw i32 %25, -1
  store i32 %27, ptr %18, align 8, !tbaa !9
  %28 = icmp eq i32 %27, 0
  br i1 %28, label %29, label %Py_DECREF.exit39

29:                                               ; preds = %26
  tail call void @_Py_Dealloc(ptr noundef nonnull %18) #8
  br label %Py_DECREF.exit39

Py_DECREF.exit39:                                 ; preds = %24, %26, %29
  %30 = getelementptr inbounds nuw i8, ptr %2, i64 8
  %31 = load ptr, ptr %30, align 8, !tbaa !77
  %32 = tail call ptr @ast2obj_expr(ptr noundef nonnull %0, ptr noundef nonnull %1, ptr noundef %31)
  %.not37 = icmp eq ptr %32, null
  br i1 %.not37, label %.thread, label %33

33:                                               ; preds = %Py_DECREF.exit39
  %34 = getelementptr inbounds nuw i8, ptr %0, i64 1712
  %35 = load ptr, ptr %34, align 8, !tbaa !332
  %36 = tail call i32 @PyObject_SetAttr(ptr noundef nonnull %15, ptr noundef %35, ptr noundef nonnull %32) #8
  %37 = icmp eq i32 %36, -1
  br i1 %37, label %48, label %38

38:                                               ; preds = %33
  %39 = load i32, ptr %32, align 8, !tbaa !9
  %.not.i = icmp sgt i32 %39, -1
  br i1 %.not.i, label %40, label %Py_DECREF.exit

40:                                               ; preds = %38
  %41 = add nsw i32 %39, -1
  store i32 %41, ptr %32, align 8, !tbaa !9
  %42 = icmp eq i32 %41, 0
  br i1 %42, label %43, label %Py_DECREF.exit

43:                                               ; preds = %40
  tail call void @_Py_Dealloc(ptr noundef nonnull %32) #8
  br label %Py_DECREF.exit

Py_DECREF.exit:                                   ; preds = %38, %40, %43
  %44 = load i32, ptr %1, align 4, !tbaa !111
  %45 = add i32 %44, -1
  store i32 %45, ptr %1, align 4, !tbaa !111
  br label %Py_XDECREF.exit44

.thread:                                          ; preds = %Py_DECREF.exit39, %16
  %46 = load i32, ptr %1, align 4, !tbaa !111
  %47 = add i32 %46, -1
  store i32 %47, ptr %1, align 4, !tbaa !111
  br label %Py_XDECREF.exit

48:                                               ; preds = %19, %33
  %.029 = phi ptr [ %18, %19 ], [ %32, %33 ]
  %49 = load i32, ptr %1, align 4, !tbaa !111
  %50 = add i32 %49, -1
  store i32 %50, ptr %1, align 4, !tbaa !111
  %51 = load i32, ptr %.029, align 8, !tbaa !9
  %.not.i.i = icmp sgt i32 %51, -1
  br i1 %.not.i.i, label %52, label %Py_XDECREF.exit

52:                                               ; preds = %48
  %53 = add nsw i32 %51, -1
  store i32 %53, ptr %.029, align 8, !tbaa !9
  %54 = icmp eq i32 %53, 0
  br i1 %54, label %55, label %Py_XDECREF.exit

55:                                               ; preds = %52
  tail call void @_Py_Dealloc(ptr noundef nonnull %.029) #8
  br label %Py_XDECREF.exit

Py_XDECREF.exit:                                  ; preds = %55, %52, %48, %.thread
  %56 = load i32, ptr %15, align 8, !tbaa !9
  %.not.i.i43 = icmp sgt i32 %56, -1
  br i1 %.not.i.i43, label %57, label %Py_XDECREF.exit44

57:                                               ; preds = %Py_XDECREF.exit
  %58 = add nsw i32 %56, -1
  store i32 %58, ptr %15, align 8, !tbaa !9
  %59 = icmp eq i32 %58, 0
  br i1 %59, label %60, label %Py_XDECREF.exit44

60:                                               ; preds = %57
  tail call void @_Py_Dealloc(ptr noundef nonnull %15) #8
  br label %Py_XDECREF.exit44

Py_XDECREF.exit44:                                ; preds = %60, %57, %Py_XDECREF.exit, %12, %3, %Py_DECREF.exit, %10
  %.0 = phi ptr [ null, %10 ], [ %15, %Py_DECREF.exit ], [ @_Py_NoneStruct, %3 ], [ null, %12 ], [ null, %Py_XDECREF.exit ], [ null, %57 ], [ null, %60 ]
  ret ptr %.0
}